; ModuleID = '22/213.c'
source_filename = "22/213.c"
target datalayout = "e-m:e-p270:32:32-p271:32:32-p272:64:64-i64:64-f80:128-n8:16:32:64-S128"
target triple = "x86_64-pc-linux-gnu"

@.str = private unnamed_addr constant [3 x i8] c"No\00", align 1
@.str.1 = private unnamed_addr constant [3 x i8] c"%d\00", align 1

; Function Attrs: noinline nounwind uwtable
define dso_local void @main() #0 {
  %1 = alloca [1000 x i8], align 16
  %2 = alloca i32, align 4
  %3 = alloca [100 x [100 x i32]], align 16
  %4 = alloca [100 x i32], align 16
  %5 = alloca [100 x i32], align 16
  %6 = alloca i32, align 4
  %7 = alloca i32, align 4
  %8 = alloca i32, align 4
  %9 = alloca i32, align 4
  %10 = alloca i32, align 4
  %11 = alloca i32, align 4
  %12 = bitcast [100 x i32]* %4 to i8*
  call void @llvm.memset.p0i8.i64(i8* align 16 %12, i8 0, i64 400, i1 false)
  %13 = bitcast [100 x i32]* %5 to i8*
  call void @llvm.memset.p0i8.i64(i8* align 16 %13, i8 0, i64 400, i1 false)
  store i32 0, i32* %6, align 4
  store i32 0, i32* %10, align 4
  store i32 0, i32* %11, align 4
  %14 = getelementptr inbounds [1000 x i8], [1000 x i8]* %1, i64 0, i64 0
  %15 = call i32 (i8*, ...) bitcast (i32 (...)* @gets to i32 (i8*, ...)*)(i8* %14)
  %16 = getelementptr inbounds [1000 x i8], [1000 x i8]* %1, i64 0, i64 0
  %17 = call i64 @strlen(i8* %16) #4
  %18 = trunc i64 %17 to i32
  store i32 %18, i32* %9, align 4
  store i32 0, i32* %2, align 4
  br label %19

19:                                               ; preds = %63, %0
  %20 = load i32, i32* %2, align 4
  %21 = load i32, i32* %9, align 4
  %22 = icmp slt i32 %20, %21
  br i1 %22, label %23, label %66

23:                                               ; preds = %19
  br label %24

24:                                               ; preds = %37, %23
  %25 = load i32, i32* %2, align 4
  %26 = load i32, i32* %9, align 4
  %27 = icmp slt i32 %25, %26
  br i1 %27, label %28, label %35

28:                                               ; preds = %24
  %29 = load i32, i32* %2, align 4
  %30 = sext i32 %29 to i64
  %31 = getelementptr inbounds [1000 x i8], [1000 x i8]* %1, i64 0, i64 %30
  %32 = load i8, i8* %31, align 1
  %33 = sext i8 %32 to i32
  %34 = icmp ne i32 %33, 44
  br label %35

35:                                               ; preds = %28, %24
  %36 = phi i1 [ false, %24 ], [ %34, %28 ]
  br i1 %36, label %37, label %60

37:                                               ; preds = %35
  %38 = load i32, i32* %2, align 4
  %39 = sext i32 %38 to i64
  %40 = getelementptr inbounds [1000 x i8], [1000 x i8]* %1, i64 0, i64 %39
  %41 = load i8, i8* %40, align 1
  %42 = sext i8 %41 to i32
  %43 = sub nsw i32 %42, 48
  %44 = load i32, i32* %6, align 4
  %45 = sext i32 %44 to i64
  %46 = getelementptr inbounds [100 x [100 x i32]], [100 x [100 x i32]]* %3, i64 0, i64 %45
  %47 = load i32, i32* %6, align 4
  %48 = sext i32 %47 to i64
  %49 = getelementptr inbounds [100 x i32], [100 x i32]* %5, i64 0, i64 %48
  %50 = load i32, i32* %49, align 4
  %51 = sext i32 %50 to i64
  %52 = getelementptr inbounds [100 x i32], [100 x i32]* %46, i64 0, i64 %51
  store i32 %43, i32* %52, align 4
  %53 = load i32, i32* %6, align 4
  %54 = sext i32 %53 to i64
  %55 = getelementptr inbounds [100 x i32], [100 x i32]* %5, i64 0, i64 %54
  %56 = load i32, i32* %55, align 4
  %57 = add nsw i32 %56, 1
  store i32 %57, i32* %55, align 4
  %58 = load i32, i32* %2, align 4
  %59 = add nsw i32 %58, 1
  store i32 %59, i32* %2, align 4
  br label %24

60:                                               ; preds = %35
  %61 = load i32, i32* %6, align 4
  %62 = add nsw i32 %61, 1
  store i32 %62, i32* %6, align 4
  br label %63

63:                                               ; preds = %60
  %64 = load i32, i32* %2, align 4
  %65 = add nsw i32 %64, 1
  store i32 %65, i32* %2, align 4
  br label %19

66:                                               ; preds = %19
  store i32 0, i32* %2, align 4
  br label %67

67:                                               ; preds = %119, %66
  %68 = load i32, i32* %2, align 4
  %69 = load i32, i32* %6, align 4
  %70 = icmp slt i32 %68, %69
  br i1 %70, label %71, label %122

71:                                               ; preds = %67
  store i32 1, i32* %8, align 4
  %72 = load i32, i32* %2, align 4
  %73 = sext i32 %72 to i64
  %74 = getelementptr inbounds [100 x i32], [100 x i32]* %5, i64 0, i64 %73
  %75 = load i32, i32* %74, align 4
  %76 = sub nsw i32 %75, 1
  store i32 %76, i32* %7, align 4
  br label %77

77:                                               ; preds = %100, %71
  %78 = load i32, i32* %7, align 4
  %79 = icmp sge i32 %78, 0
  br i1 %79, label %80, label %103

80:                                               ; preds = %77
  %81 = load i32, i32* %2, align 4
  %82 = sext i32 %81 to i64
  %83 = getelementptr inbounds [100 x i32], [100 x i32]* %4, i64 0, i64 %82
  %84 = load i32, i32* %83, align 4
  %85 = load i32, i32* %2, align 4
  %86 = sext i32 %85 to i64
  %87 = getelementptr inbounds [100 x [100 x i32]], [100 x [100 x i32]]* %3, i64 0, i64 %86
  %88 = load i32, i32* %7, align 4
  %89 = sext i32 %88 to i64
  %90 = getelementptr inbounds [100 x i32], [100 x i32]* %87, i64 0, i64 %89
  %91 = load i32, i32* %90, align 4
  %92 = load i32, i32* %8, align 4
  %93 = mul nsw i32 %91, %92
  %94 = add nsw i32 %84, %93
  %95 = load i32, i32* %2, align 4
  %96 = sext i32 %95 to i64
  %97 = getelementptr inbounds [100 x i32], [100 x i32]* %4, i64 0, i64 %96
  store i32 %94, i32* %97, align 4
  %98 = load i32, i32* %8, align 4
  %99 = mul nsw i32 %98, 10
  store i32 %99, i32* %8, align 4
  br label %100

100:                                              ; preds = %80
  %101 = load i32, i32* %7, align 4
  %102 = add nsw i32 %101, -1
  store i32 %102, i32* %7, align 4
  br label %77

103:                                              ; preds = %77
  %104 = load i32, i32* %10, align 4
  %105 = load i32, i32* %2, align 4
  %106 = sext i32 %105 to i64
  %107 = getelementptr inbounds [100 x i32], [100 x i32]* %4, i64 0, i64 %106
  %108 = load i32, i32* %107, align 4
  %109 = icmp sge i32 %104, %108
  br i1 %109, label %110, label %112

110:                                              ; preds = %103
  %111 = load i32, i32* %10, align 4
  br label %117

112:                                              ; preds = %103
  %113 = load i32, i32* %2, align 4
  %114 = sext i32 %113 to i64
  %115 = getelementptr inbounds [100 x i32], [100 x i32]* %4, i64 0, i64 %114
  %116 = load i32, i32* %115, align 4
  br label %117

117:                                              ; preds = %112, %110
  %118 = phi i32 [ %111, %110 ], [ %116, %112 ]
  store i32 %118, i32* %10, align 4
  br label %119

119:                                              ; preds = %117
  %120 = load i32, i32* %2, align 4
  %121 = add nsw i32 %120, 1
  store i32 %121, i32* %2, align 4
  br label %67

122:                                              ; preds = %67
  store i32 0, i32* %2, align 4
  br label %123

123:                                              ; preds = %151, %122
  %124 = load i32, i32* %2, align 4
  %125 = load i32, i32* %6, align 4
  %126 = icmp slt i32 %124, %125
  br i1 %126, label %127, label %154

127:                                              ; preds = %123
  %128 = load i32, i32* %2, align 4
  %129 = sext i32 %128 to i64
  %130 = getelementptr inbounds [100 x i32], [100 x i32]* %4, i64 0, i64 %129
  %131 = load i32, i32* %130, align 4
  %132 = load i32, i32* %10, align 4
  %133 = icmp ne i32 %131, %132
  br i1 %133, label %134, label %150

134:                                              ; preds = %127
  %135 = load i32, i32* %11, align 4
  %136 = load i32, i32* %2, align 4
  %137 = sext i32 %136 to i64
  %138 = getelementptr inbounds [100 x i32], [100 x i32]* %4, i64 0, i64 %137
  %139 = load i32, i32* %138, align 4
  %140 = icmp sge i32 %135, %139
  br i1 %140, label %141, label %143

141:                                              ; preds = %134
  %142 = load i32, i32* %11, align 4
  br label %148

143:                                              ; preds = %134
  %144 = load i32, i32* %2, align 4
  %145 = sext i32 %144 to i64
  %146 = getelementptr inbounds [100 x i32], [100 x i32]* %4, i64 0, i64 %145
  %147 = load i32, i32* %146, align 4
  br label %148

148:                                              ; preds = %143, %141
  %149 = phi i32 [ %142, %141 ], [ %147, %143 ]
  store i32 %149, i32* %11, align 4
  br label %150

150:                                              ; preds = %148, %127
  br label %151

151:                                              ; preds = %150
  %152 = load i32, i32* %2, align 4
  %153 = add nsw i32 %152, 1
  store i32 %153, i32* %2, align 4
  br label %123

154:                                              ; preds = %123
  %155 = load i32, i32* %11, align 4
  %156 = icmp eq i32 %155, 0
  br i1 %156, label %157, label %159

157:                                              ; preds = %154
  %158 = call i32 (i8*, ...) @printf(i8* getelementptr inbounds ([3 x i8], [3 x i8]* @.str, i64 0, i64 0))
  br label %182

159:                                              ; preds = %154
  store i32 0, i32* %2, align 4
  br label %160

160:                                              ; preds = %178, %159
  %161 = load i32, i32* %2, align 4
  %162 = load i32, i32* %6, align 4
  %163 = icmp slt i32 %161, %162
  br i1 %163, label %164, label %181

164:                                              ; preds = %160
  %165 = load i32, i32* %2, align 4
  %166 = sext i32 %165 to i64
  %167 = getelementptr inbounds [100 x i32], [100 x i32]* %4, i64 0, i64 %166
  %168 = load i32, i32* %167, align 4
  %169 = load i32, i32* %11, align 4
  %170 = icmp eq i32 %168, %169
  br i1 %170, label %171, label %177

171:                                              ; preds = %164
  %172 = load i32, i32* %2, align 4
  %173 = sext i32 %172 to i64
  %174 = getelementptr inbounds [100 x i32], [100 x i32]* %4, i64 0, i64 %173
  %175 = load i32, i32* %174, align 4
  %176 = call i32 (i8*, ...) @printf(i8* getelementptr inbounds ([3 x i8], [3 x i8]* @.str.1, i64 0, i64 0), i32 %175)
  br label %181

177:                                              ; preds = %164
  br label %178

178:                                              ; preds = %177
  %179 = load i32, i32* %2, align 4
  %180 = add nsw i32 %179, 1
  store i32 %180, i32* %2, align 4
  br label %160

181:                                              ; preds = %171, %160
  br label %182

182:                                              ; preds = %181, %157
  ret void
}

; Function Attrs: argmemonly nounwind willreturn
declare void @llvm.memset.p0i8.i64(i8* nocapture writeonly, i8, i64, i1 immarg) #1

declare dso_local i32 @gets(...) #2

; Function Attrs: nounwind readonly
declare dso_local i64 @strlen(i8*) #3

declare dso_local i32 @printf(i8*, ...) #2


!llvm.module.flags = !{!0}
!llvm.ident = !{!1}

!0 = !{i32 1, !"wchar_size", i32 4}
!1 = !{!"clang version 10.0.0-4ubuntu1 "}
